target datalayout = "e-m:e-p270:32:32-p271:32:32-p272:64:64-i64:64-i128:128-f80:128-n8:16:32:64-S128"
target triple = "x86_64-pc-linux-gnu"

%struct.stat = type { i64, i64, i64, i32, i32, i32, i32, i64, i64, i64, i64, %struct.timespec, %struct.timespec, %struct.timespec, [3 x i64] }
%struct.timespec = type { i64, i64 }

@.str.60 = private unnamed_addr constant [1 x i8] zeroinitializer, align 1
@git_gettext_enabled = external global i32, align 4
@.str.77 = private unnamed_addr constant [24 x i8] c"object file %s is empty\00", align 1
@.str.107 = private unnamed_addr constant [29 x i8] c"Cannot handle files this big\00", align 1

; Function Attrs: inlinehint nounwind uwtable
define internal i32 @const_error() #7 {
  ret i32 -1
}

; Function Attrs: inlinehint nounwind uwtable
define internal ptr @_(ptr noundef %0) #7 {
  %2 = alloca ptr, align 8
  %3 = alloca ptr, align 8
  store ptr %0, ptr %3, align 8, !tbaa !12
  %4 = load ptr, ptr %3, align 8, !tbaa !12
  %5 = load i8, ptr %4, align 1, !tbaa !58
  %6 = icmp ne i8 %5, 0
  br i1 %6, label %8, label %7

7:                                                ; preds = %1
  store ptr @.str.60, ptr %2, align 8
  br label %16

8:                                                ; preds = %1
  %9 = load i32, ptr @git_gettext_enabled, align 4, !tbaa !43
  %10 = icmp ne i32 %9, 0
  br i1 %10, label %13, label %11

11:                                               ; preds = %8
  %12 = load ptr, ptr %3, align 8, !tbaa !12
  store ptr %12, ptr %2, align 8
  br label %16

13:                                               ; preds = %8
  %14 = load ptr, ptr %3, align 8, !tbaa !12
  %15 = call ptr @dcgettext(ptr noundef null, ptr noundef %14, i32 noundef 5) #14
  store ptr %15, ptr %2, align 8
  br label %16

16:                                               ; preds = %13, %11, %7
  %17 = load ptr, ptr %2, align 8
  ret ptr %17
}

; Function Attrs: inlinehint nounwind uwtable
define internal i64 @xsize_t(i64 noundef %0) #7 {
  %2 = alloca i64, align 8
  store i64 %0, ptr %2, align 8, !tbaa !10
  %3 = load i64, ptr %2, align 8, !tbaa !10
  %4 = icmp slt i64 %3, 0
  br i1 %4, label %8, label %5

5:                                                ; preds = %1
  %6 = load i64, ptr %2, align 8, !tbaa !10
  %7 = icmp ugt i64 %6, -1
  br i1 %7, label %8, label %9

8:                                                ; preds = %5, %1
  call void (ptr, ...) @die(ptr noundef @.str.107) #13
  unreachable

9:                                                ; preds = %5
  %10 = load i64, ptr %2, align 8, !tbaa !10
  ret i64 %10
}

; Function Attrs: nounwind uwtable
define internal ptr @map_fd(i32 noundef %0, ptr noundef %1, ptr noundef %2) #0 {
  %4 = alloca ptr, align 8
  %5 = alloca i32, align 4
  %6 = alloca ptr, align 8
  %7 = alloca ptr, align 8
  %8 = alloca ptr, align 8
  %9 = alloca %struct.stat, align 8
  %10 = alloca i32, align 4
  store i32 %0, ptr %5, align 4, !tbaa !43
  store ptr %1, ptr %6, align 8, !tbaa !12
  store ptr %2, ptr %7, align 8, !tbaa !111
  call void @llvm.lifetime.start.p0(i64 8, ptr %8) #14
  store ptr null, ptr %8, align 8, !tbaa !9
  call void @llvm.lifetime.start.p0(i64 144, ptr %9) #14
  %11 = load i32, ptr %5, align 4, !tbaa !43
  %12 = call i32 @fstat64(i32 noundef %11, ptr noundef %9) #14
  %13 = icmp ne i32 %12, 0
  br i1 %13, label %34, label %14

14:                                               ; preds = %3
  %15 = getelementptr inbounds nuw %struct.stat, ptr %9, i32 0, i32 8
  %16 = load i64, ptr %15, align 8, !tbaa !55
  %17 = call i64 @xsize_t(i64 noundef %16)
  %18 = load ptr, ptr %7, align 8, !tbaa !111
  store i64 %17, ptr %18, align 8, !tbaa !10
  %19 = load ptr, ptr %7, align 8, !tbaa !111
  %20 = load i64, ptr %19, align 8, !tbaa !10
  %21 = icmp ne i64 %20, 0
  br i1 %21, label %29, label %22

22:                                               ; preds = %14
  %23 = call ptr @_(ptr noundef @.str.77)
  %24 = load ptr, ptr %6, align 8, !tbaa !12
  %25 = call i32 (ptr, ...) @error(ptr noundef %23, ptr noundef %24)
  %26 = call i32 @const_error()
  %27 = load i32, ptr %5, align 4, !tbaa !43
  %28 = call i32 @close(i32 noundef %27)
  store ptr null, ptr %4, align 8
  store i32 1, ptr %10, align 4
  br label %38

29:                                               ; preds = %14
  %30 = load ptr, ptr %7, align 8, !tbaa !111
  %31 = load i64, ptr %30, align 8, !tbaa !10
  %32 = load i32, ptr %5, align 4, !tbaa !43
  %33 = call ptr @xmmap(ptr noundef null, i64 noundef %31, i32 noundef 1, i32 noundef 2, i32 noundef %32, i64 noundef 0)
  store ptr %33, ptr %8, align 8, !tbaa !9
  br label %34

34:                                               ; preds = %29, %3
  %35 = load i32, ptr %5, align 4, !tbaa !43
  %36 = call i32 @close(i32 noundef %35)
  %37 = load ptr, ptr %8, align 8, !tbaa !9
  store ptr %37, ptr %4, align 8
  store i32 1, ptr %10, align 4
  br label %38

38:                                               ; preds = %34, %22
  call void @llvm.lifetime.end.p0(i64 144, ptr %9) #14
  call void @llvm.lifetime.end.p0(i64 8, ptr %8) #14
  %39 = load ptr, ptr %4, align 8
  ret ptr %39
}