; Function Attrs: nounwind uwtable
define internal fastcc ptr @map_fd(i32 noundef range(i32 0, -2147483648) %0, ptr noundef %1, ptr noundef writeonly captures(none) %2) unnamed_addr #1 {
  %4 = alloca %struct.stat, align 8
  call void @llvm.lifetime.start.p0(i64 144, ptr nonnull %4) #27
  %5 = call i32 @fstat64(i32 noundef %0, ptr noundef nonnull %4) #27
  %.not = icmp eq i32 %5, 0
  br i1 %.not, label %6, label %18

6:                                                ; preds = %3
  %7 = getelementptr inbounds nuw i8, ptr %4, i64 48
  %8 = load i64, ptr %7, align 8, !tbaa !48
  %9 = icmp slt i64 %8, 0
  br i1 %9, label %10, label %xsize_t.exit

10:                                               ; preds = %6
  tail call void (ptr, ...) @die(ptr noundef nonnull @.str.107) #26
  unreachable

xsize_t.exit:                                     ; preds = %6
  store i64 %8, ptr %2, align 8, !tbaa !94
  %.not11 = icmp eq i64 %8, 0
  br i1 %.not11, label %11, label %16

11:                                               ; preds = %xsize_t.exit
  %12 = load i32, ptr @git_gettext_enabled, align 4, !tbaa !44
  %.not4.i = icmp eq i32 %12, 0
  br i1 %.not4.i, label %_.exit, label %13

13:                                               ; preds = %11
  %14 = tail call ptr @dcgettext(ptr noundef null, ptr noundef nonnull @.str.77, i32 noundef 5) #27
  br label %_.exit

_.exit:                                           ; preds = %11, %13
  %.0.i = phi ptr [ %14, %13 ], [ @.str.77, %11 ]
  %15 = tail call i32 (ptr, ...) @error(ptr noundef %.0.i, ptr noundef %1) #27
  br label %18

16:                                               ; preds = %xsize_t.exit
  %17 = tail call ptr @xmmap(ptr noundef null, i64 noundef %8, i32 noundef 1, i32 noundef 2, i32 noundef %0, i64 noundef 0)
  br label %18

18:                                               ; preds = %3, %16, %_.exit
  %.09 = phi ptr [ null, %_.exit ], [ null, %3 ], [ %17, %16 ]
  %19 = tail call i32 @close(i32 noundef %0) #27
  call void @llvm.lifetime.end.p0(i64 144, ptr nonnull %4) #27
  ret ptr %.09
}